target datalayout = "e-m:e-p270:32:32-p271:32:32-p272:64:64-i64:64-i128:128-f80:128-n8:16:32:64-S128"
target triple = "x86_64-pc-linux-gnu"

%struct.quicklist = type { ptr, ptr, i64, i64, i64, [0 x %struct.quicklistBookmark] }
%struct.quicklistBookmark = type { ptr, ptr }

; Function Attrs: nounwind uwtable
define dso_local void @quicklistSetCompressDepth(ptr noundef %0, i32 noundef %1) #0 {
  %3 = alloca ptr, align 8
  %4 = alloca i32, align 4
  store ptr %0, ptr %3, align 8, !tbaa !9
  store i32 %1, ptr %4, align 4, !tbaa !14
  %5 = load i32, ptr %4, align 4, !tbaa !14
  %6 = icmp sgt i32 %5, 65535
  br i1 %6, label %7, label %8

7:                                                ; preds = %2
  store i32 65535, ptr %4, align 4, !tbaa !14
  br label %13

8:                                                ; preds = %2
  %9 = load i32, ptr %4, align 4, !tbaa !14
  %10 = icmp slt i32 %9, 0
  br i1 %10, label %11, label %12

11:                                               ; preds = %8
  store i32 0, ptr %4, align 4, !tbaa !14
  br label %12

12:                                               ; preds = %11, %8
  br label %13

13:                                               ; preds = %12, %7
  %14 = load i32, ptr %4, align 4, !tbaa !14
  %15 = load ptr, ptr %3, align 8, !tbaa !9
  %16 = getelementptr inbounds nuw %struct.quicklist, ptr %15, i32 0, i32 4
  %17 = zext i32 %14 to i64
  %18 = load i64, ptr %16, align 8
  %19 = and i64 %17, 65535
  %20 = shl i64 %19, 16
  %21 = and i64 %18, -4294901761
  %22 = or i64 %21, %20
  store i64 %22, ptr %16, align 8
  ret void
}

; Function Attrs: nounwind uwtable
define dso_local void @quicklistSetFill(ptr noundef %0, i32 noundef %1) #0 {
  %3 = alloca ptr, align 8
  %4 = alloca i32, align 4
  store ptr %0, ptr %3, align 8, !tbaa !9
  store i32 %1, ptr %4, align 4, !tbaa !14
  %5 = load i32, ptr %4, align 4, !tbaa !14
  %6 = icmp sgt i32 %5, 32767
  br i1 %6, label %7, label %8

7:                                                ; preds = %2
  store i32 32767, ptr %4, align 4, !tbaa !14
  br label %13

8:                                                ; preds = %2
  %9 = load i32, ptr %4, align 4, !tbaa !14
  %10 = icmp slt i32 %9, -5
  br i1 %10, label %11, label %12

11:                                               ; preds = %8
  store i32 -5, ptr %4, align 4, !tbaa !14
  br label %12

12:                                               ; preds = %11, %8
  br label %13

13:                                               ; preds = %12, %7
  %14 = load i32, ptr %4, align 4, !tbaa !14
  %15 = load ptr, ptr %3, align 8, !tbaa !9
  %16 = getelementptr inbounds nuw %struct.quicklist, ptr %15, i32 0, i32 4
  %17 = zext i32 %14 to i64
  %18 = load i64, ptr %16, align 8
  %19 = and i64 %17, 65535
  %20 = and i64 %18, -65536
  %21 = or i64 %20, %19
  store i64 %21, ptr %16, align 8
  ret void
}

; Function Attrs: nounwind uwtable
define dso_local void @quicklistSetOptions(ptr noundef %0, i32 noundef %1, i32 noundef %2) #0 {
  %4 = alloca ptr, align 8
  %5 = alloca i32, align 4
  %6 = alloca i32, align 4
  store ptr %0, ptr %4, align 8, !tbaa !9
  store i32 %1, ptr %5, align 4, !tbaa !14
  store i32 %2, ptr %6, align 4, !tbaa !14
  %7 = load ptr, ptr %4, align 8, !tbaa !9
  %8 = load i32, ptr %5, align 4, !tbaa !14
  call void @quicklistSetFill(ptr noundef %7, i32 noundef %8)
  %9 = load ptr, ptr %4, align 8, !tbaa !9
  %10 = load i32, ptr %6, align 4, !tbaa !14
  call void @quicklistSetCompressDepth(ptr noundef %9, i32 noundef %10)
  ret void
}

; Function Attrs: nounwind uwtable
define dso_local ptr @quicklistCreate() #0 {
  %1 = alloca ptr, align 8
  call void @llvm.lifetime.start.p0(i64 8, ptr %1) #10
  %2 = call noalias ptr @zmalloc(i64 noundef 40) #11
  store ptr %2, ptr %1, align 8, !tbaa !9
  %3 = load ptr, ptr %1, align 8, !tbaa !9
  %4 = getelementptr inbounds nuw %struct.quicklist, ptr %3, i32 0, i32 1
  store ptr null, ptr %4, align 8, !tbaa !12
  %5 = load ptr, ptr %1, align 8, !tbaa !9
  %6 = getelementptr inbounds nuw %struct.quicklist, ptr %5, i32 0, i32 0
  store ptr null, ptr %6, align 8, !tbaa !12
  %7 = load ptr, ptr %1, align 8, !tbaa !9
  %8 = getelementptr inbounds nuw %struct.quicklist, ptr %7, i32 0, i32 3
  store i64 0, ptr %8, align 8, !tbaa !5
  %9 = load ptr, ptr %1, align 8, !tbaa !9
  %10 = getelementptr inbounds nuw %struct.quicklist, ptr %9, i32 0, i32 2
  store i64 0, ptr %10, align 8, !tbaa !5
  %11 = load ptr, ptr %1, align 8, !tbaa !9
  %12 = getelementptr inbounds nuw %struct.quicklist, ptr %11, i32 0, i32 4
  %13 = load i64, ptr %12, align 8
  %14 = and i64 %13, -4294901761
  %15 = or i64 %14, 0
  store i64 %15, ptr %12, align 8
  %16 = load ptr, ptr %1, align 8, !tbaa !9
  %17 = getelementptr inbounds nuw %struct.quicklist, ptr %16, i32 0, i32 4
  %18 = load i64, ptr %17, align 8
  %19 = and i64 %18, -65536
  %20 = or i64 %19, 65534
  store i64 %20, ptr %17, align 8
  %21 = load ptr, ptr %1, align 8, !tbaa !9
  %22 = getelementptr inbounds nuw %struct.quicklist, ptr %21, i32 0, i32 4
  %23 = load i64, ptr %22, align 8
  %24 = and i64 %23, -64424509441
  %25 = or i64 %24, 0
  store i64 %25, ptr %22, align 8
  %26 = load ptr, ptr %1, align 8, !tbaa !9
  call void @llvm.lifetime.end.p0(i64 8, ptr %1) #10
  ret ptr %26
}

; Function Attrs: nounwind uwtable
define dso_local ptr @quicklistNew(i32 noundef %0, i32 noundef %1) #0 {
  %3 = alloca i32, align 4
  %4 = alloca i32, align 4
  %5 = alloca ptr, align 8
  store i32 %0, ptr %3, align 4, !tbaa !14
  store i32 %1, ptr %4, align 4, !tbaa !14
  call void @llvm.lifetime.start.p0(i64 8, ptr %5) #10
  %6 = call ptr @quicklistCreate()
  store ptr %6, ptr %5, align 8, !tbaa !9
  %7 = load ptr, ptr %5, align 8, !tbaa !9
  %8 = load i32, ptr %3, align 4, !tbaa !14
  %9 = load i32, ptr %4, align 4, !tbaa !14
  call void @quicklistSetOptions(ptr noundef %7, i32 noundef %8, i32 noundef %9)
  %10 = load ptr, ptr %5, align 8, !tbaa !9
  call void @llvm.lifetime.end.p0(i64 8, ptr %5) #10
  ret ptr %10
}