; Function Attrs: nounwind uwtable
define dso_local noalias noundef ptr @quicklistNew(i32 noundef %0, i32 noundef %1) local_unnamed_addr #1 {
  %3 = tail call noalias dereferenceable_or_null(40) ptr @zmalloc(i64 noundef 40) #22
  %4 = getelementptr inbounds nuw i8, ptr %3, i64 32
  tail call void @llvm.memset.p0.i64(ptr noundef nonnull align 8 dereferenceable(32) %3, i8 0, i64 32, i1 false)
  %5 = load i64, ptr %4, align 8
  %6 = and i64 %5, -68719476736
  %spec.store.select.i.i = tail call i32 @llvm.smax.i32(i32 %0, i32 -5)
  %narrow.i.i = tail call i32 @llvm.smin.i32(i32 %spec.store.select.i.i, i32 32767)
  %7 = icmp sgt i32 %1, 65535
  %spec.store.select.i3.i = tail call i32 @llvm.smax.i32(i32 %1, i32 0)
  %8 = shl i32 %spec.store.select.i3.i, 16
  %narrow.i4.i = select i1 %7, i32 -65536, i32 %8
  %9 = and i32 %narrow.i.i, 65535
  %10 = or disjoint i32 %narrow.i4.i, %9
  %11 = zext i32 %10 to i64
  %12 = or disjoint i64 %6, %11
  store i64 %12, ptr %4, align 8
  ret ptr %3
}